; Function Attrs: mustprogress nofree norecurse nosync nounwind willreturn memory(read, inaccessiblemem: none) uwtable
define noundef i32 @_ZNK4YAML12EmitterState12CurGroupTypeEv(ptr noundef nonnull readonly align 8 captures(none) dereferenceable(224) %0) local_unnamed_addr #6 align 2 {
  %2 = getelementptr inbounds nuw i8, ptr %0, i64 176
  %3 = load ptr, ptr %2, align 8, !tbaa !97
  %4 = getelementptr inbounds nuw i8, ptr %0, i64 184
  %5 = load ptr, ptr %4, align 8, !tbaa !97
  %6 = icmp eq ptr %3, %5
  br i1 %6, label %11, label %7

7:                                                ; preds = %1
  %8 = getelementptr inbounds i8, ptr %5, i64 -8
  %9 = load ptr, ptr %8, align 8, !tbaa !89
  %10 = load i32, ptr %9, align 8, !tbaa !106
  br label %11

11:                                               ; preds = %1, %7
  %12 = phi i32 [ %10, %7 ], [ 0, %1 ]
  ret i32 %12
}